target datalayout = "e-m:e-p270:32:32-p271:32:32-p272:64:64-i64:64-i128:128-f80:128-n8:16:32:64-S128"
target triple = "x86_64-pc-linux-gnu"

%struct.QemuMutex = type { %union.pthread_mutex_t, i8 }
%union.pthread_mutex_t = type { %struct.__pthread_mutex_s }
%struct.__pthread_mutex_s = type { i32, i32, i32, i32, i32, i16, i16, %struct.__pthread_internal_list }
%struct.__pthread_internal_list = type { ptr, ptr }
%struct.BlockJob = type { %struct.Job, i32, i64, %struct.RateLimit, ptr, %struct.Notifier, %struct.Notifier, %struct.Notifier, %struct.Notifier, %struct.Notifier, ptr }
%struct.Job = type { ptr, ptr, ptr, i8, i8, ptr, ptr, %struct.ProgressMeter, ptr, i32, i32, %struct.QEMUTimer, i32, i8, i8, i8, i8, i8, i8, i32, ptr, %struct.NotifierList, %struct.NotifierList, %struct.NotifierList, %struct.NotifierList, %struct.NotifierList, %struct.anon.0, ptr, %struct.anon.1 }
%struct.ProgressMeter = type { i64, i64, %struct.QemuMutex }
%struct.QEMUTimer = type { i64, ptr, ptr, ptr, ptr, i32, i32 }
%struct.NotifierList = type { %struct.anon }
%struct.anon = type { ptr }
%struct.anon.0 = type { ptr, ptr }
%struct.anon.1 = type { ptr, ptr }
%struct.RateLimit = type { %struct.QemuMutex, i64, i64, i64, i64, i64 }
%struct.Notifier = type { ptr, %struct.anon.2 }
%struct.anon.2 = type { ptr, ptr }
%struct.BlockJobDriver = type { %struct.JobDriver, ptr, ptr, ptr, ptr, ptr }
%struct.JobDriver = type { i64, i32, ptr, ptr, ptr, ptr, ptr, ptr, ptr, ptr, ptr, ptr, ptr }
%struct.BlockJobInfo = type { i32, ptr, i64, i64, i8, i8, i64, i32, i8, i32, i8, i8, ptr, %union.anon }
%union.anon = type { %struct.BlockJobInfoMirror }
%struct.BlockJobInfoMirror = type { i8 }

@.str = private unnamed_addr constant [22 x i8] c"qemu_in_main_thread()\00", align 1
@.str.1 = private unnamed_addr constant [19 x i8] c"../qemu/blockjob.c\00", align 1
@__PRETTY_FUNCTION__.block_job_query_locked = private unnamed_addr constant [59 x i8] c"BlockJobInfo *block_job_query_locked(BlockJob *, Error **)\00", align 1
@__func__.block_job_query_locked = private unnamed_addr constant [23 x i8] c"block_job_query_locked\00", align 1
@.str.6 = private unnamed_addr constant [32 x i8] c"Cannot query QEMU internal jobs\00", align 1

; Function Attrs: nounwind sspstrong uwtable
define dso_local zeroext i1 @block_job_is_internal(ptr noundef %0) #0 {
  %2 = alloca ptr, align 8
  store ptr %0, ptr %2, align 8
  %3 = load ptr, ptr %2, align 8
  %4 = getelementptr inbounds nuw %struct.BlockJob, ptr %3, i32 0, i32 0
  %5 = getelementptr inbounds nuw %struct.Job, ptr %4, i32 0, i32 0
  %6 = load ptr, ptr %5, align 8
  %7 = icmp eq ptr %6, null
  ret i1 %7
}

; Function Attrs: nounwind sspstrong uwtable
define dso_local ptr @block_job_driver(ptr noundef %0) #0 {
  %2 = alloca ptr, align 8
  %3 = alloca ptr, align 8
  %4 = alloca ptr, align 8
  store ptr %0, ptr %2, align 8
  call void @llvm.lifetime.start.p0(i64 8, ptr %3) #12
  %5 = load ptr, ptr %2, align 8
  %6 = getelementptr inbounds nuw %struct.BlockJob, ptr %5, i32 0, i32 0
  %7 = getelementptr inbounds nuw %struct.Job, ptr %6, i32 0, i32 1
  %8 = load ptr, ptr %7, align 8
  store ptr %8, ptr %3, align 8
  %9 = load ptr, ptr %3, align 8
  %10 = getelementptr inbounds i8, ptr %9, i64 0
  store ptr %10, ptr %4, align 8
  call void @llvm.lifetime.end.p0(i64 8, ptr %3) #12
  %11 = load ptr, ptr %4, align 8
  ret ptr %11
}

; Function Attrs: nounwind sspstrong uwtable
define dso_local ptr @block_job_query_locked(ptr noundef %0, ptr noundef %1) #0 {
  %3 = alloca ptr, align 8
  %4 = alloca ptr, align 8
  %5 = alloca ptr, align 8
  %6 = alloca ptr, align 8
  %7 = alloca i64, align 8
  %8 = alloca i64, align 8
  %9 = alloca ptr, align 8
  %10 = alloca i32, align 4
  %11 = alloca i64, align 8
  %12 = alloca i64, align 8
  %13 = alloca ptr, align 8
  %14 = alloca ptr, align 8
  store ptr %0, ptr %4, align 8
  store ptr %1, ptr %5, align 8
  call void @llvm.lifetime.start.p0(i64 8, ptr %6) #12
  store ptr null, ptr %6, align 8, !annotation !8
  call void @llvm.lifetime.start.p0(i64 8, ptr %7) #12
  store i64 0, ptr %7, align 8, !annotation !8
  call void @llvm.lifetime.start.p0(i64 8, ptr %8) #12
  store i64 0, ptr %8, align 8, !annotation !8
  call void @llvm.lifetime.start.p0(i64 8, ptr %9) #12
  %15 = load ptr, ptr %4, align 8
  %16 = call ptr @block_job_driver(ptr noundef %15)
  store ptr %16, ptr %9, align 8
  br label %17

17:                                               ; preds = %2
  %18 = call zeroext i1 @qemu_in_main_thread()
  br i1 %18, label %19, label %20

19:                                               ; preds = %17
  br label %21

20:                                               ; preds = %17
  call void @__assert_fail(ptr noundef @.str, ptr noundef @.str.1, i32 noundef 365, ptr noundef @__PRETTY_FUNCTION__.block_job_query_locked) #13
  unreachable

21:                                               ; preds = %19
  br label %22

22:                                               ; preds = %21
  br label %23

23:                                               ; preds = %22
  %24 = load ptr, ptr %4, align 8
  %25 = call zeroext i1 @block_job_is_internal(ptr noundef %24)
  br i1 %25, label %26, label %28

26:                                               ; preds = %23
  %27 = load ptr, ptr %5, align 8
  call void (ptr, ptr, i32, ptr, ptr, ...) @error_setg_internal(ptr noundef %27, ptr noundef @.str.1, i32 noundef 368, ptr noundef @__func__.block_job_query_locked, ptr noundef @.str.6)
  store ptr null, ptr %3, align 8
  store i32 1, ptr %10, align 4
  br label %176

28:                                               ; preds = %23
  %29 = load ptr, ptr %4, align 8
  %30 = getelementptr inbounds nuw %struct.BlockJob, ptr %29, i32 0, i32 0
  %31 = getelementptr inbounds nuw %struct.Job, ptr %30, i32 0, i32 7
  call void @progress_get_snapshot(ptr noundef %31, ptr noundef %7, ptr noundef %8)
  call void @llvm.lifetime.start.p0(i64 8, ptr %11) #12
  store i64 1, ptr %11, align 8
  call void @llvm.lifetime.start.p0(i64 8, ptr %12) #12
  store i64 80, ptr %12, align 8
  call void @llvm.lifetime.start.p0(i64 8, ptr %13) #12
  store ptr null, ptr %13, align 8, !annotation !8
  %32 = load i64, ptr %12, align 8
  %33 = icmp eq i64 %32, 1
  br i1 %33, label %34, label %37

34:                                               ; preds = %28
  %35 = load i64, ptr %11, align 8
  %36 = call noalias ptr @g_malloc0(i64 noundef %35) #15
  store ptr %36, ptr %13, align 8
  br label %58

37:                                               ; preds = %28
  %38 = load i64, ptr %11, align 8
  %39 = call i1 @llvm.is.constant.i64(i64 %38)
  br i1 %39, label %40, label %53

40:                                               ; preds = %37
  %41 = load i64, ptr %12, align 8
  %42 = icmp eq i64 %41, 0
  br i1 %42, label %48, label %43

43:                                               ; preds = %40
  %44 = load i64, ptr %11, align 8
  %45 = load i64, ptr %12, align 8
  %46 = udiv i64 -1, %45
  %47 = icmp ule i64 %44, %46
  br i1 %47, label %48, label %53

48:                                               ; preds = %43, %40
  %49 = load i64, ptr %11, align 8
  %50 = load i64, ptr %12, align 8
  %51 = mul i64 %49, %50
  %52 = call noalias ptr @g_malloc0(i64 noundef %51) #15
  store ptr %52, ptr %13, align 8
  br label %57

53:                                               ; preds = %43, %37
  %54 = load i64, ptr %11, align 8
  %55 = load i64, ptr %12, align 8
  %56 = call noalias ptr @g_malloc0_n(i64 noundef %54, i64 noundef %55) #16
  store ptr %56, ptr %13, align 8
  br label %57

57:                                               ; preds = %53, %48
  br label %58

58:                                               ; preds = %57, %34
  %59 = load ptr, ptr %13, align 8
  store ptr %59, ptr %14, align 8
  call void @llvm.lifetime.end.p0(i64 8, ptr %13) #12
  call void @llvm.lifetime.end.p0(i64 8, ptr %12) #12
  call void @llvm.lifetime.end.p0(i64 8, ptr %11) #12
  %60 = load ptr, ptr %14, align 8
  store ptr %60, ptr %6, align 8
  %61 = load ptr, ptr %4, align 8
  %62 = getelementptr inbounds nuw %struct.BlockJob, ptr %61, i32 0, i32 0
  %63 = call i32 @job_type(ptr noundef %62)
  %64 = load ptr, ptr %6, align 8
  %65 = getelementptr inbounds nuw %struct.BlockJobInfo, ptr %64, i32 0, i32 0
  store i32 %63, ptr %65, align 8
  %66 = load ptr, ptr %4, align 8
  %67 = getelementptr inbounds nuw %struct.BlockJob, ptr %66, i32 0, i32 0
  %68 = getelementptr inbounds nuw %struct.Job, ptr %67, i32 0, i32 0
  %69 = load ptr, ptr %68, align 8
  %70 = call noalias ptr @g_strdup(ptr noundef %69)
  %71 = load ptr, ptr %6, align 8
  %72 = getelementptr inbounds nuw %struct.BlockJobInfo, ptr %71, i32 0, i32 1
  store ptr %70, ptr %72, align 8
  %73 = load ptr, ptr %4, align 8
  %74 = getelementptr inbounds nuw %struct.BlockJob, ptr %73, i32 0, i32 0
  %75 = getelementptr inbounds nuw %struct.Job, ptr %74, i32 0, i32 13
  %76 = load i8, ptr %75, align 4, !range !11, !noundef !12
  %77 = trunc i8 %76 to i1
  %78 = load ptr, ptr %6, align 8
  %79 = getelementptr inbounds nuw %struct.BlockJobInfo, ptr %78, i32 0, i32 4
  %80 = zext i1 %77 to i8
  store i8 %80, ptr %79, align 8
  %81 = load ptr, ptr %4, align 8
  %82 = getelementptr inbounds nuw %struct.BlockJob, ptr %81, i32 0, i32 0
  %83 = getelementptr inbounds nuw %struct.Job, ptr %82, i32 0, i32 12
  %84 = load i32, ptr %83, align 8
  %85 = icmp sgt i32 %84, 0
  %86 = load ptr, ptr %6, align 8
  %87 = getelementptr inbounds nuw %struct.BlockJobInfo, ptr %86, i32 0, i32 5
  %88 = zext i1 %85 to i8
  store i8 %88, ptr %87, align 1
  %89 = load i64, ptr %7, align 8
  %90 = load ptr, ptr %6, align 8
  %91 = getelementptr inbounds nuw %struct.BlockJobInfo, ptr %90, i32 0, i32 3
  store i64 %89, ptr %91, align 8
  %92 = load i64, ptr %8, align 8
  %93 = load ptr, ptr %6, align 8
  %94 = getelementptr inbounds nuw %struct.BlockJobInfo, ptr %93, i32 0, i32 2
  store i64 %92, ptr %94, align 8
  %95 = load ptr, ptr %4, align 8
  %96 = getelementptr inbounds nuw %struct.BlockJob, ptr %95, i32 0, i32 2
  %97 = load i64, ptr %96, align 8
  %98 = load ptr, ptr %6, align 8
  %99 = getelementptr inbounds nuw %struct.BlockJobInfo, ptr %98, i32 0, i32 6
  store i64 %97, ptr %99, align 8
  %100 = load ptr, ptr %4, align 8
  %101 = getelementptr inbounds nuw %struct.BlockJob, ptr %100, i32 0, i32 1
  %102 = load i32, ptr %101, align 8
  %103 = load ptr, ptr %6, align 8
  %104 = getelementptr inbounds nuw %struct.BlockJobInfo, ptr %103, i32 0, i32 7
  store i32 %102, ptr %104, align 8
  %105 = load ptr, ptr %4, align 8
  %106 = getelementptr inbounds nuw %struct.BlockJob, ptr %105, i32 0, i32 0
  %107 = call zeroext i1 @job_is_ready_locked(ptr noundef %106)
  %108 = load ptr, ptr %6, align 8
  %109 = getelementptr inbounds nuw %struct.BlockJobInfo, ptr %108, i32 0, i32 8
  %110 = zext i1 %107 to i8
  store i8 %110, ptr %109, align 4
  %111 = load ptr, ptr %4, align 8
  %112 = getelementptr inbounds nuw %struct.BlockJob, ptr %111, i32 0, i32 0
  %113 = getelementptr inbounds nuw %struct.Job, ptr %112, i32 0, i32 10
  %114 = load i32, ptr %113, align 4
  %115 = load ptr, ptr %6, align 8
  %116 = getelementptr inbounds nuw %struct.BlockJobInfo, ptr %115, i32 0, i32 9
  store i32 %114, ptr %116, align 8
  %117 = load ptr, ptr %4, align 8
  %118 = getelementptr inbounds nuw %struct.BlockJob, ptr %117, i32 0, i32 0
  %119 = getelementptr inbounds nuw %struct.Job, ptr %118, i32 0, i32 3
  %120 = load i8, ptr %119, align 8, !range !11, !noundef !12
  %121 = trunc i8 %120 to i1
  %122 = load ptr, ptr %6, align 8
  %123 = getelementptr inbounds nuw %struct.BlockJobInfo, ptr %122, i32 0, i32 10
  %124 = zext i1 %121 to i8
  store i8 %124, ptr %123, align 4
  %125 = load ptr, ptr %4, align 8
  %126 = getelementptr inbounds nuw %struct.BlockJob, ptr %125, i32 0, i32 0
  %127 = getelementptr inbounds nuw %struct.Job, ptr %126, i32 0, i32 4
  %128 = load i8, ptr %127, align 1, !range !11, !noundef !12
  %129 = trunc i8 %128 to i1
  %130 = load ptr, ptr %6, align 8
  %131 = getelementptr inbounds nuw %struct.BlockJobInfo, ptr %130, i32 0, i32 11
  %132 = zext i1 %129 to i8
  store i8 %132, ptr %131, align 1
  %133 = load ptr, ptr %4, align 8
  %134 = getelementptr inbounds nuw %struct.BlockJob, ptr %133, i32 0, i32 0
  %135 = getelementptr inbounds nuw %struct.Job, ptr %134, i32 0, i32 19
  %136 = load i32, ptr %135, align 4
  %137 = icmp ne i32 %136, 0
  br i1 %137, label %138, label %163

138:                                              ; preds = %58
  %139 = load ptr, ptr %4, align 8
  %140 = getelementptr inbounds nuw %struct.BlockJob, ptr %139, i32 0, i32 0
  %141 = getelementptr inbounds nuw %struct.Job, ptr %140, i32 0, i32 20
  %142 = load ptr, ptr %141, align 8
  %143 = icmp ne ptr %142, null
  br i1 %143, label %144, label %151

144:                                              ; preds = %138
  %145 = load ptr, ptr %4, align 8
  %146 = getelementptr inbounds nuw %struct.BlockJob, ptr %145, i32 0, i32 0
  %147 = getelementptr inbounds nuw %struct.Job, ptr %146, i32 0, i32 20
  %148 = load ptr, ptr %147, align 8
  %149 = call ptr @error_get_pretty(ptr noundef %148)
  %150 = call noalias ptr @g_strdup(ptr noundef %149)
  br label %159

151:                                              ; preds = %138
  %152 = load ptr, ptr %4, align 8
  %153 = getelementptr inbounds nuw %struct.BlockJob, ptr %152, i32 0, i32 0
  %154 = getelementptr inbounds nuw %struct.Job, ptr %153, i32 0, i32 19
  %155 = load i32, ptr %154, align 4
  %156 = sub i32 0, %155
  %157 = call ptr @strerror(i32 noundef %156) #12
  %158 = call noalias ptr @g_strdup(ptr noundef %157)
  br label %159

159:                                              ; preds = %151, %144
  %160 = phi ptr [ %150, %144 ], [ %158, %151 ]
  %161 = load ptr, ptr %6, align 8
  %162 = getelementptr inbounds nuw %struct.BlockJobInfo, ptr %161, i32 0, i32 12
  store ptr %160, ptr %162, align 8
  br label %163

163:                                              ; preds = %159, %58
  %164 = load ptr, ptr %9, align 8
  %165 = getelementptr inbounds nuw %struct.BlockJobDriver, ptr %164, i32 0, i32 5
  %166 = load ptr, ptr %165, align 8
  %167 = icmp ne ptr %166, null
  br i1 %167, label %168, label %174

168:                                              ; preds = %163
  call void @job_unlock()
  %169 = load ptr, ptr %9, align 8
  %170 = getelementptr inbounds nuw %struct.BlockJobDriver, ptr %169, i32 0, i32 5
  %171 = load ptr, ptr %170, align 8
  %172 = load ptr, ptr %4, align 8
  %173 = load ptr, ptr %6, align 8
  call void %171(ptr noundef %172, ptr noundef %173)
  call void @job_lock()
  br label %174

174:                                              ; preds = %168, %163
  %175 = load ptr, ptr %6, align 8
  store ptr %175, ptr %3, align 8
  store i32 1, ptr %10, align 4
  br label %176

176:                                              ; preds = %174, %26
  call void @llvm.lifetime.end.p0(i64 8, ptr %9) #12
  call void @llvm.lifetime.end.p0(i64 8, ptr %8) #12
  call void @llvm.lifetime.end.p0(i64 8, ptr %7) #12
  call void @llvm.lifetime.end.p0(i64 8, ptr %6) #12
  %177 = load ptr, ptr %3, align 8
  ret ptr %177
}