; Function Attrs: nounwind sspstrong uwtable
define dso_local noundef ptr @block_job_query_locked(ptr noundef %0, ptr noundef %1) local_unnamed_addr #0 {
  %3 = alloca i64, align 8
  %4 = alloca i64, align 8
  call void @llvm.lifetime.start.p0(i64 8, ptr nonnull %3) #8
  call void @llvm.lifetime.start.p0(i64 8, ptr nonnull %4) #8
  %5 = getelementptr inbounds nuw i8, ptr %0, i64 8
  %6 = load ptr, ptr %5, align 8
  %7 = tail call zeroext i1 @qemu_in_main_thread() #8
  br i1 %7, label %9, label %8

8:                                                ; preds = %2
  tail call void @__assert_fail(ptr noundef nonnull @.str, ptr noundef nonnull @.str.1, i32 noundef 365, ptr noundef nonnull @__PRETTY_FUNCTION__.block_job_query_locked) #9
  unreachable

9:                                                ; preds = %2
  %10 = load ptr, ptr %0, align 8
  %11 = icmp eq ptr %10, null
  br i1 %11, label %12, label %13

12:                                               ; preds = %9
  tail call void (ptr, ptr, i32, ptr, ptr, ...) @error_setg_internal(ptr noundef %1, ptr noundef nonnull @.str.1, i32 noundef 368, ptr noundef nonnull @__func__.block_job_query_locked, ptr noundef nonnull @.str.6) #8
  br label %68

13:                                               ; preds = %9
  store i64 0, ptr %3, align 8, !annotation !9
  store i64 0, ptr %4, align 8, !annotation !9
  %14 = getelementptr inbounds nuw i8, ptr %0, i64 48
  call void @progress_get_snapshot(ptr noundef nonnull %14, ptr noundef nonnull %3, ptr noundef nonnull %4) #8
  %15 = call noalias dereferenceable_or_null(80) ptr @g_malloc0(i64 noundef 80) #10
  %16 = call i32 @job_type(ptr noundef nonnull %0) #8
  store i32 %16, ptr %15, align 8
  %17 = load ptr, ptr %0, align 8
  %18 = call noalias ptr @g_strdup(ptr noundef %17) #8
  %19 = getelementptr inbounds nuw i8, ptr %15, i64 8
  store ptr %18, ptr %19, align 8
  %20 = getelementptr inbounds nuw i8, ptr %0, i64 180
  %21 = load i8, ptr %20, align 4, !range !10, !noundef !11
  %22 = getelementptr inbounds nuw i8, ptr %15, i64 32
  store i8 %21, ptr %22, align 8
  %23 = getelementptr inbounds nuw i8, ptr %0, i64 176
  %24 = load i32, ptr %23, align 8
  %25 = icmp sgt i32 %24, 0
  %26 = getelementptr inbounds nuw i8, ptr %15, i64 33
  %27 = zext i1 %25 to i8
  store i8 %27, ptr %26, align 1
  %28 = load i64, ptr %3, align 8
  %29 = getelementptr inbounds nuw i8, ptr %15, i64 24
  store i64 %28, ptr %29, align 8
  %30 = load i64, ptr %4, align 8
  %31 = getelementptr inbounds nuw i8, ptr %15, i64 16
  store i64 %30, ptr %31, align 8
  %32 = getelementptr inbounds nuw i8, ptr %0, i64 288
  %33 = load i64, ptr %32, align 8
  %34 = getelementptr inbounds nuw i8, ptr %15, i64 40
  store i64 %33, ptr %34, align 8
  %35 = getelementptr inbounds nuw i8, ptr %0, i64 280
  %36 = load i32, ptr %35, align 8
  %37 = getelementptr inbounds nuw i8, ptr %15, i64 48
  store i32 %36, ptr %37, align 8
  %38 = call zeroext i1 @job_is_ready_locked(ptr noundef nonnull %0) #8
  %39 = getelementptr inbounds nuw i8, ptr %15, i64 52
  %40 = zext i1 %38 to i8
  store i8 %40, ptr %39, align 4
  %41 = getelementptr inbounds nuw i8, ptr %0, i64 124
  %42 = load i32, ptr %41, align 4
  %43 = getelementptr inbounds nuw i8, ptr %15, i64 56
  store i32 %42, ptr %43, align 8
  %44 = getelementptr inbounds nuw i8, ptr %0, i64 24
  %45 = load i8, ptr %44, align 8, !range !10, !noundef !11
  %46 = getelementptr inbounds nuw i8, ptr %15, i64 60
  store i8 %45, ptr %46, align 4
  %47 = getelementptr inbounds nuw i8, ptr %0, i64 25
  %48 = load i8, ptr %47, align 1, !range !10, !noundef !11
  %49 = getelementptr inbounds nuw i8, ptr %15, i64 61
  store i8 %48, ptr %49, align 1
  %50 = getelementptr inbounds nuw i8, ptr %0, i64 188
  %51 = load i32, ptr %50, align 4
  %.not = icmp eq i32 %51, 0
  br i1 %.not, label %63, label %52

52:                                               ; preds = %13
  %53 = getelementptr inbounds nuw i8, ptr %0, i64 192
  %54 = load ptr, ptr %53, align 8
  %.not51 = icmp eq ptr %54, null
  br i1 %.not51, label %57, label %55

55:                                               ; preds = %52
  %56 = call ptr @error_get_pretty(ptr noundef nonnull %54) #8
  br label %60

57:                                               ; preds = %52
  %58 = sub i32 0, %51
  %59 = call ptr @strerror(i32 noundef %58) #8
  br label %60

60:                                               ; preds = %57, %55
  %.sink = phi ptr [ %59, %57 ], [ %56, %55 ]
  %61 = call noalias ptr @g_strdup(ptr noundef %.sink) #8
  %62 = getelementptr inbounds nuw i8, ptr %15, i64 64
  store ptr %61, ptr %62, align 8
  br label %63

63:                                               ; preds = %60, %13
  %64 = getelementptr inbounds nuw i8, ptr %6, i64 136
  %65 = load ptr, ptr %64, align 8
  %.not52 = icmp eq ptr %65, null
  br i1 %.not52, label %68, label %66

66:                                               ; preds = %63
  call void @job_unlock() #8
  %67 = load ptr, ptr %64, align 8
  call void %67(ptr noundef nonnull %0, ptr noundef nonnull %15) #8
  call void @job_lock() #8
  br label %68

68:                                               ; preds = %63, %66, %12
  %.0 = phi ptr [ null, %12 ], [ %15, %66 ], [ %15, %63 ]
  call void @llvm.lifetime.end.p0(i64 8, ptr nonnull %4) #8
  call void @llvm.lifetime.end.p0(i64 8, ptr nonnull %3) #8
  ret ptr %.0
}